target datalayout = "e-m:e-p270:32:32-p271:32:32-p272:64:64-i64:64-i128:128-f80:128-n8:16:32:64-S128"
target triple = "x86_64-pc-linux-gnu"

%"class.OpenImageIO::v3_1_0::SgiInput" = type { %"class.OpenImageIO::v3_1_0::ImageInput", %"class.std::__cxx11::basic_string", %"struct.OpenImageIO::v3_1_0::sgi_pvt::SgiHeader", %"class.std::vector.16", %"class.std::vector.16" }
%"class.OpenImageIO::v3_1_0::ImageInput" = type { ptr, %"class.OpenImageIO::v3_1_0::ImageSpec", %"class.std::unique_ptr" }
%"class.OpenImageIO::v3_1_0::ImageSpec" = type { i32, i32, i32, i32, i32, i32, i32, i32, i32, i32, i32, i32, i32, i32, i32, i32, %"struct.OpenImageIO::v3_1_0::TypeDesc", %"class.std::vector", %"class.std::vector.0", i32, i32, i8, %"class.OpenImageIO::v3_1_0::ParamValueList" }
%"struct.OpenImageIO::v3_1_0::TypeDesc" = type { i8, i8, i8, i8, i32 }
%"class.std::vector" = type { %"struct.std::_Vector_base" }
%"struct.std::_Vector_base" = type { %"struct.std::_Vector_base<OpenImageIO::v3_1_0::TypeDesc, std::allocator<OpenImageIO::v3_1_0::TypeDesc>>::_Vector_impl" }
%"struct.std::_Vector_base<OpenImageIO::v3_1_0::TypeDesc, std::allocator<OpenImageIO::v3_1_0::TypeDesc>>::_Vector_impl" = type { %"struct.std::_Vector_base<OpenImageIO::v3_1_0::TypeDesc, std::allocator<OpenImageIO::v3_1_0::TypeDesc>>::_Vector_impl_data" }
%"struct.std::_Vector_base<OpenImageIO::v3_1_0::TypeDesc, std::allocator<OpenImageIO::v3_1_0::TypeDesc>>::_Vector_impl_data" = type { ptr, ptr, ptr }
%"class.std::vector.0" = type { %"struct.std::_Vector_base.1" }
%"struct.std::_Vector_base.1" = type { %"struct.std::_Vector_base<std::__cxx11::basic_string<char>, std::allocator<std::__cxx11::basic_string<char>>>::_Vector_impl" }
%"struct.std::_Vector_base<std::__cxx11::basic_string<char>, std::allocator<std::__cxx11::basic_string<char>>>::_Vector_impl" = type { %"struct.std::_Vector_base<std::__cxx11::basic_string<char>, std::allocator<std::__cxx11::basic_string<char>>>::_Vector_impl_data" }
%"struct.std::_Vector_base<std::__cxx11::basic_string<char>, std::allocator<std::__cxx11::basic_string<char>>>::_Vector_impl_data" = type { ptr, ptr, ptr }
%"class.OpenImageIO::v3_1_0::ParamValueList" = type { %"class.std::vector.5" }
%"class.std::vector.5" = type { %"struct.std::_Vector_base.6" }
%"struct.std::_Vector_base.6" = type { %"struct.std::_Vector_base<OpenImageIO::v3_1_0::ParamValue, std::allocator<OpenImageIO::v3_1_0::ParamValue>>::_Vector_impl" }
%"struct.std::_Vector_base<OpenImageIO::v3_1_0::ParamValue, std::allocator<OpenImageIO::v3_1_0::ParamValue>>::_Vector_impl" = type { %"struct.std::_Vector_base<OpenImageIO::v3_1_0::ParamValue, std::allocator<OpenImageIO::v3_1_0::ParamValue>>::_Vector_impl_data" }
%"struct.std::_Vector_base<OpenImageIO::v3_1_0::ParamValue, std::allocator<OpenImageIO::v3_1_0::ParamValue>>::_Vector_impl_data" = type { ptr, ptr, ptr }
%"class.std::unique_ptr" = type { %"struct.std::__uniq_ptr_data" }
%"struct.std::__uniq_ptr_data" = type { %"class.std::__uniq_ptr_impl" }
%"class.std::__uniq_ptr_impl" = type { %"class.std::tuple" }
%"class.std::tuple" = type { %"struct.std::_Tuple_impl" }
%"struct.std::_Tuple_impl" = type { %"struct.std::_Tuple_impl.10", %"struct.std::_Head_base.11" }
%"struct.std::_Tuple_impl.10" = type { %"struct.std::_Head_base" }
%"struct.std::_Head_base" = type { ptr }
%"struct.std::_Head_base.11" = type { ptr }
%"class.std::__cxx11::basic_string" = type { %"struct.std::__cxx11::basic_string<char>::_Alloc_hider", i64, %union.anon.15 }
%"struct.std::__cxx11::basic_string<char>::_Alloc_hider" = type { ptr }
%union.anon.15 = type { i64, [8 x i8] }
%"struct.OpenImageIO::v3_1_0::sgi_pvt::SgiHeader" = type { i16, i8, i8, i16, i16, i16, i16, i32, i32, i32, [80 x i8], i32 }
%"class.std::vector.16" = type { %"struct.std::_Vector_base.17" }
%"struct.std::_Vector_base.17" = type { %"struct.std::_Vector_base<unsigned int, std::allocator<unsigned int>>::_Vector_impl" }
%"struct.std::_Vector_base<unsigned int, std::allocator<unsigned int>>::_Vector_impl" = type { %"struct.std::_Vector_base<unsigned int, std::allocator<unsigned int>>::_Vector_impl_data" }
%"struct.std::_Vector_base<unsigned int, std::allocator<unsigned int>>::_Vector_impl_data" = type { ptr, ptr, ptr }

; Function Attrs: inlinehint mustprogress nounwind uwtable
define linkonce_odr hidden noundef i32 @_ZN11OpenImageIO6v3_1_08byteswapIiEET_S2_(i32 noundef %0) #4 comdat {
  %2 = alloca i32, align 4
  store i32 %0, ptr %2, align 4, !tbaa !65
  %3 = load i32, ptr %2, align 4, !tbaa !65
  %4 = call i32 @llvm.bswap.i32(i32 %3)
  ret i32 %4
}

; Function Attrs: inlinehint mustprogress nounwind uwtable
define linkonce_odr hidden noundef zeroext i16 @_ZN11OpenImageIO6v3_1_08byteswapItEET_S2_(i16 noundef zeroext %0) #4 comdat {
  %2 = alloca i16, align 2
  store i16 %0, ptr %2, align 2, !tbaa !14
  %3 = load i16, ptr %2, align 2, !tbaa !14
  %4 = call i16 @llvm.bswap.i16(i16 %3)
  ret i16 %4
}

; Function Attrs: inlinehint mustprogress nounwind uwtable
define linkonce_odr hidden noundef signext i16 @_ZN11OpenImageIO6v3_1_08byteswapIsEET_S2_(i16 noundef signext %0) #4 comdat {
  %2 = alloca i16, align 2
  store i16 %0, ptr %2, align 2, !tbaa !14
  %3 = load i16, ptr %2, align 2, !tbaa !14
  %4 = call i16 @llvm.bswap.i16(i16 %3)
  ret i16 %4
}

; Function Attrs: inlinehint mustprogress uwtable
define linkonce_odr hidden void @_ZN11OpenImageIO6v3_1_011swap_endianIiEEvPT_i(ptr noundef %0, i32 noundef %1) #9 comdat {
  %3 = alloca ptr, align 8
  %4 = alloca i32, align 4
  %5 = alloca i32, align 4
  store ptr %0, ptr %3, align 8, !tbaa !134
  store i32 %1, ptr %4, align 4, !tbaa !65
  call void @llvm.lifetime.start.p0(i64 4, ptr %5) #3
  store i32 0, ptr %5, align 4, !tbaa !65
  br label %6

6:                                                ; preds = %22, %2
  %7 = load i32, ptr %5, align 4, !tbaa !65
  %8 = load i32, ptr %4, align 4, !tbaa !65
  %9 = icmp slt i32 %7, %8
  br i1 %9, label %11, label %10

10:                                               ; preds = %6
  call void @llvm.lifetime.end.p0(i64 4, ptr %5) #3
  br label %25

11:                                               ; preds = %6
  %12 = load ptr, ptr %3, align 8, !tbaa !134
  %13 = load i32, ptr %5, align 4, !tbaa !65
  %14 = sext i32 %13 to i64
  %15 = getelementptr inbounds i32, ptr %12, i64 %14
  %16 = load i32, ptr %15, align 4, !tbaa !65
  %17 = call noundef i32 @_ZN11OpenImageIO6v3_1_08byteswapIiEET_S2_(i32 noundef %16)
  %18 = load ptr, ptr %3, align 8, !tbaa !134
  %19 = load i32, ptr %5, align 4, !tbaa !65
  %20 = sext i32 %19 to i64
  %21 = getelementptr inbounds i32, ptr %18, i64 %20
  store i32 %17, ptr %21, align 4, !tbaa !65
  br label %22

22:                                               ; preds = %11
  %23 = load i32, ptr %5, align 4, !tbaa !65
  %24 = add nsw i32 %23, 1
  store i32 %24, ptr %5, align 4, !tbaa !65
  br label %6, !llvm.loop !139

25:                                               ; preds = %10
  ret void
}

; Function Attrs: inlinehint mustprogress uwtable
define linkonce_odr hidden void @_ZN11OpenImageIO6v3_1_011swap_endianItEEvPT_i(ptr noundef %0, i32 noundef %1) #9 comdat {
  %3 = alloca ptr, align 8
  %4 = alloca i32, align 4
  %5 = alloca i32, align 4
  store ptr %0, ptr %3, align 8, !tbaa !82
  store i32 %1, ptr %4, align 4, !tbaa !65
  call void @llvm.lifetime.start.p0(i64 4, ptr %5) #3
  store i32 0, ptr %5, align 4, !tbaa !65
  br label %6

6:                                                ; preds = %22, %2
  %7 = load i32, ptr %5, align 4, !tbaa !65
  %8 = load i32, ptr %4, align 4, !tbaa !65
  %9 = icmp slt i32 %7, %8
  br i1 %9, label %11, label %10

10:                                               ; preds = %6
  call void @llvm.lifetime.end.p0(i64 4, ptr %5) #3
  br label %25

11:                                               ; preds = %6
  %12 = load ptr, ptr %3, align 8, !tbaa !82
  %13 = load i32, ptr %5, align 4, !tbaa !65
  %14 = sext i32 %13 to i64
  %15 = getelementptr inbounds i16, ptr %12, i64 %14
  %16 = load i16, ptr %15, align 2, !tbaa !14
  %17 = call noundef zeroext i16 @_ZN11OpenImageIO6v3_1_08byteswapItEET_S2_(i16 noundef zeroext %16)
  %18 = load ptr, ptr %3, align 8, !tbaa !82
  %19 = load i32, ptr %5, align 4, !tbaa !65
  %20 = sext i32 %19 to i64
  %21 = getelementptr inbounds i16, ptr %18, i64 %20
  store i16 %17, ptr %21, align 2, !tbaa !14
  br label %22

22:                                               ; preds = %11
  %23 = load i32, ptr %5, align 4, !tbaa !65
  %24 = add nsw i32 %23, 1
  store i32 %24, ptr %5, align 4, !tbaa !65
  br label %6, !llvm.loop !130

25:                                               ; preds = %10
  ret void
}

; Function Attrs: inlinehint mustprogress uwtable
define linkonce_odr hidden void @_ZN11OpenImageIO6v3_1_011swap_endianIsEEvPT_i(ptr noundef %0, i32 noundef %1) #9 comdat {
  %3 = alloca ptr, align 8
  %4 = alloca i32, align 4
  %5 = alloca i32, align 4
  store ptr %0, ptr %3, align 8, !tbaa !82
  store i32 %1, ptr %4, align 4, !tbaa !65
  call void @llvm.lifetime.start.p0(i64 4, ptr %5) #3
  store i32 0, ptr %5, align 4, !tbaa !65
  br label %6

6:                                                ; preds = %22, %2
  %7 = load i32, ptr %5, align 4, !tbaa !65
  %8 = load i32, ptr %4, align 4, !tbaa !65
  %9 = icmp slt i32 %7, %8
  br i1 %9, label %11, label %10

10:                                               ; preds = %6
  call void @llvm.lifetime.end.p0(i64 4, ptr %5) #3
  br label %25

11:                                               ; preds = %6
  %12 = load ptr, ptr %3, align 8, !tbaa !82
  %13 = load i32, ptr %5, align 4, !tbaa !65
  %14 = sext i32 %13 to i64
  %15 = getelementptr inbounds i16, ptr %12, i64 %14
  %16 = load i16, ptr %15, align 2, !tbaa !14
  %17 = call noundef signext i16 @_ZN11OpenImageIO6v3_1_08byteswapIsEET_S2_(i16 noundef signext %16)
  %18 = load ptr, ptr %3, align 8, !tbaa !82
  %19 = load i32, ptr %5, align 4, !tbaa !65
  %20 = sext i32 %19 to i64
  %21 = getelementptr inbounds i16, ptr %18, i64 %20
  store i16 %17, ptr %21, align 2, !tbaa !14
  br label %22

22:                                               ; preds = %11
  %23 = load i32, ptr %5, align 4, !tbaa !65
  %24 = add nsw i32 %23, 1
  store i32 %24, ptr %5, align 4, !tbaa !65
  br label %6, !llvm.loop !138

25:                                               ; preds = %10
  ret void
}

; Function Attrs: mustprogress uwtable
define hidden noundef zeroext i1 @_ZN11OpenImageIO6v3_1_08SgiInput11read_headerEv(ptr noundef nonnull align 8 dereferenceable(376) %0) #7 align 2 {
  %2 = alloca i1, align 1
  %3 = alloca ptr, align 8
  store ptr %0, ptr %3, align 8, !tbaa !8
  %4 = load ptr, ptr %3, align 8
  %5 = getelementptr inbounds nuw %"class.OpenImageIO::v3_1_0::SgiInput", ptr %4, i32 0, i32 2
  %6 = getelementptr inbounds nuw %"struct.OpenImageIO::v3_1_0::sgi_pvt::SgiHeader", ptr %5, i32 0, i32 0
  %7 = call noundef zeroext i1 @_ZN11OpenImageIO6v3_1_010ImageInput6ioreadEPvmm(ptr noundef nonnull align 8 dereferenceable(184) %4, ptr noundef %6, i64 noundef 2, i64 noundef 1)
  br i1 %7, label %8, label %48

8:                                                ; preds = %1
  %9 = getelementptr inbounds nuw %"class.OpenImageIO::v3_1_0::SgiInput", ptr %4, i32 0, i32 2
  %10 = getelementptr inbounds nuw %"struct.OpenImageIO::v3_1_0::sgi_pvt::SgiHeader", ptr %9, i32 0, i32 1
  %11 = call noundef zeroext i1 @_ZN11OpenImageIO6v3_1_010ImageInput6ioreadEPvmm(ptr noundef nonnull align 8 dereferenceable(184) %4, ptr noundef %10, i64 noundef 1, i64 noundef 1)
  br i1 %11, label %12, label %48

12:                                               ; preds = %8
  %13 = getelementptr inbounds nuw %"class.OpenImageIO::v3_1_0::SgiInput", ptr %4, i32 0, i32 2
  %14 = getelementptr inbounds nuw %"struct.OpenImageIO::v3_1_0::sgi_pvt::SgiHeader", ptr %13, i32 0, i32 2
  %15 = call noundef zeroext i1 @_ZN11OpenImageIO6v3_1_010ImageInput6ioreadEPvmm(ptr noundef nonnull align 8 dereferenceable(184) %4, ptr noundef %14, i64 noundef 1, i64 noundef 1)
  br i1 %15, label %16, label %48

16:                                               ; preds = %12
  %17 = getelementptr inbounds nuw %"class.OpenImageIO::v3_1_0::SgiInput", ptr %4, i32 0, i32 2
  %18 = getelementptr inbounds nuw %"struct.OpenImageIO::v3_1_0::sgi_pvt::SgiHeader", ptr %17, i32 0, i32 3
  %19 = call noundef zeroext i1 @_ZN11OpenImageIO6v3_1_010ImageInput6ioreadEPvmm(ptr noundef nonnull align 8 dereferenceable(184) %4, ptr noundef %18, i64 noundef 2, i64 noundef 1)
  br i1 %19, label %20, label %48

20:                                               ; preds = %16
  %21 = getelementptr inbounds nuw %"class.OpenImageIO::v3_1_0::SgiInput", ptr %4, i32 0, i32 2
  %22 = getelementptr inbounds nuw %"struct.OpenImageIO::v3_1_0::sgi_pvt::SgiHeader", ptr %21, i32 0, i32 4
  %23 = call noundef zeroext i1 @_ZN11OpenImageIO6v3_1_010ImageInput6ioreadEPvmm(ptr noundef nonnull align 8 dereferenceable(184) %4, ptr noundef %22, i64 noundef 2, i64 noundef 1)
  br i1 %23, label %24, label %48

24:                                               ; preds = %20
  %25 = getelementptr inbounds nuw %"class.OpenImageIO::v3_1_0::SgiInput", ptr %4, i32 0, i32 2
  %26 = getelementptr inbounds nuw %"struct.OpenImageIO::v3_1_0::sgi_pvt::SgiHeader", ptr %25, i32 0, i32 5
  %27 = call noundef zeroext i1 @_ZN11OpenImageIO6v3_1_010ImageInput6ioreadEPvmm(ptr noundef nonnull align 8 dereferenceable(184) %4, ptr noundef %26, i64 noundef 2, i64 noundef 1)
  br i1 %27, label %28, label %48

28:                                               ; preds = %24
  %29 = getelementptr inbounds nuw %"class.OpenImageIO::v3_1_0::SgiInput", ptr %4, i32 0, i32 2
  %30 = getelementptr inbounds nuw %"struct.OpenImageIO::v3_1_0::sgi_pvt::SgiHeader", ptr %29, i32 0, i32 6
  %31 = call noundef zeroext i1 @_ZN11OpenImageIO6v3_1_010ImageInput6ioreadEPvmm(ptr noundef nonnull align 8 dereferenceable(184) %4, ptr noundef %30, i64 noundef 2, i64 noundef 1)
  br i1 %31, label %32, label %48

32:                                               ; preds = %28
  %33 = getelementptr inbounds nuw %"class.OpenImageIO::v3_1_0::SgiInput", ptr %4, i32 0, i32 2
  %34 = getelementptr inbounds nuw %"struct.OpenImageIO::v3_1_0::sgi_pvt::SgiHeader", ptr %33, i32 0, i32 7
  %35 = call noundef zeroext i1 @_ZN11OpenImageIO6v3_1_010ImageInput6ioreadEPvmm(ptr noundef nonnull align 8 dereferenceable(184) %4, ptr noundef %34, i64 noundef 4, i64 noundef 1)
  br i1 %35, label %36, label %48

36:                                               ; preds = %32
  %37 = getelementptr inbounds nuw %"class.OpenImageIO::v3_1_0::SgiInput", ptr %4, i32 0, i32 2
  %38 = getelementptr inbounds nuw %"struct.OpenImageIO::v3_1_0::sgi_pvt::SgiHeader", ptr %37, i32 0, i32 8
  %39 = call noundef zeroext i1 @_ZN11OpenImageIO6v3_1_010ImageInput6ioreadEPvmm(ptr noundef nonnull align 8 dereferenceable(184) %4, ptr noundef %38, i64 noundef 4, i64 noundef 1)
  br i1 %39, label %40, label %48

40:                                               ; preds = %36
  %41 = getelementptr inbounds nuw %"class.OpenImageIO::v3_1_0::SgiInput", ptr %4, i32 0, i32 2
  %42 = getelementptr inbounds nuw %"struct.OpenImageIO::v3_1_0::sgi_pvt::SgiHeader", ptr %41, i32 0, i32 9
  %43 = call noundef zeroext i1 @_ZN11OpenImageIO6v3_1_010ImageInput6ioreadEPvmm(ptr noundef nonnull align 8 dereferenceable(184) %4, ptr noundef %42, i64 noundef 4, i64 noundef 1)
  br i1 %43, label %44, label %48

44:                                               ; preds = %40
  %45 = getelementptr inbounds nuw %"class.OpenImageIO::v3_1_0::SgiInput", ptr %4, i32 0, i32 2
  %46 = getelementptr inbounds nuw %"struct.OpenImageIO::v3_1_0::sgi_pvt::SgiHeader", ptr %45, i32 0, i32 10
  %47 = call noundef zeroext i1 @_ZN11OpenImageIO6v3_1_010ImageInput6ioreadEPvmm(ptr noundef nonnull align 8 dereferenceable(184) %4, ptr noundef %46, i64 noundef 80, i64 noundef 1)
  br i1 %47, label %49, label %48

48:                                               ; preds = %44, %40, %36, %32, %28, %24, %20, %16, %12, %8, %1
  store i1 false, ptr %2, align 1
  br label %75

49:                                               ; preds = %44
  %50 = getelementptr inbounds nuw %"class.OpenImageIO::v3_1_0::SgiInput", ptr %4, i32 0, i32 2
  %51 = getelementptr inbounds nuw %"struct.OpenImageIO::v3_1_0::sgi_pvt::SgiHeader", ptr %50, i32 0, i32 10
  %52 = getelementptr inbounds [80 x i8], ptr %51, i64 0, i64 79
  store i8 0, ptr %52, align 1, !tbaa !78
  %53 = getelementptr inbounds nuw %"class.OpenImageIO::v3_1_0::SgiInput", ptr %4, i32 0, i32 2
  %54 = getelementptr inbounds nuw %"struct.OpenImageIO::v3_1_0::sgi_pvt::SgiHeader", ptr %53, i32 0, i32 11
  %55 = call noundef zeroext i1 @_ZN11OpenImageIO6v3_1_010ImageInput6ioreadEPvmm(ptr noundef nonnull align 8 dereferenceable(184) %4, ptr noundef %54, i64 noundef 4, i64 noundef 1)
  br i1 %55, label %57, label %56

56:                                               ; preds = %49
  store i1 false, ptr %2, align 1
  br label %75

57:                                               ; preds = %49
  %58 = call noundef zeroext i1 @_ZN11OpenImageIO6v3_1_010ImageInput6ioseekEli(ptr noundef nonnull align 8 dereferenceable(184) %4, i64 noundef 404, i32 noundef 1)
  %59 = getelementptr inbounds nuw %"class.OpenImageIO::v3_1_0::SgiInput", ptr %4, i32 0, i32 2
  %60 = getelementptr inbounds nuw %"struct.OpenImageIO::v3_1_0::sgi_pvt::SgiHeader", ptr %59, i32 0, i32 0
  call void @_ZN11OpenImageIO6v3_1_011swap_endianIsEEvPT_i(ptr noundef %60, i32 noundef 1)
  %61 = getelementptr inbounds nuw %"class.OpenImageIO::v3_1_0::SgiInput", ptr %4, i32 0, i32 2
  %62 = getelementptr inbounds nuw %"struct.OpenImageIO::v3_1_0::sgi_pvt::SgiHeader", ptr %61, i32 0, i32 3
  call void @_ZN11OpenImageIO6v3_1_011swap_endianItEEvPT_i(ptr noundef %62, i32 noundef 1)
  %63 = getelementptr inbounds nuw %"class.OpenImageIO::v3_1_0::SgiInput", ptr %4, i32 0, i32 2
  %64 = getelementptr inbounds nuw %"struct.OpenImageIO::v3_1_0::sgi_pvt::SgiHeader", ptr %63, i32 0, i32 4
  call void @_ZN11OpenImageIO6v3_1_011swap_endianItEEvPT_i(ptr noundef %64, i32 noundef 1)
  %65 = getelementptr inbounds nuw %"class.OpenImageIO::v3_1_0::SgiInput", ptr %4, i32 0, i32 2
  %66 = getelementptr inbounds nuw %"struct.OpenImageIO::v3_1_0::sgi_pvt::SgiHeader", ptr %65, i32 0, i32 5
  call void @_ZN11OpenImageIO6v3_1_011swap_endianItEEvPT_i(ptr noundef %66, i32 noundef 1)
  %67 = getelementptr inbounds nuw %"class.OpenImageIO::v3_1_0::SgiInput", ptr %4, i32 0, i32 2
  %68 = getelementptr inbounds nuw %"struct.OpenImageIO::v3_1_0::sgi_pvt::SgiHeader", ptr %67, i32 0, i32 6
  call void @_ZN11OpenImageIO6v3_1_011swap_endianItEEvPT_i(ptr noundef %68, i32 noundef 1)
  %69 = getelementptr inbounds nuw %"class.OpenImageIO::v3_1_0::SgiInput", ptr %4, i32 0, i32 2
  %70 = getelementptr inbounds nuw %"struct.OpenImageIO::v3_1_0::sgi_pvt::SgiHeader", ptr %69, i32 0, i32 7
  call void @_ZN11OpenImageIO6v3_1_011swap_endianIiEEvPT_i(ptr noundef %70, i32 noundef 1)
  %71 = getelementptr inbounds nuw %"class.OpenImageIO::v3_1_0::SgiInput", ptr %4, i32 0, i32 2
  %72 = getelementptr inbounds nuw %"struct.OpenImageIO::v3_1_0::sgi_pvt::SgiHeader", ptr %71, i32 0, i32 8
  call void @_ZN11OpenImageIO6v3_1_011swap_endianIiEEvPT_i(ptr noundef %72, i32 noundef 1)
  %73 = getelementptr inbounds nuw %"class.OpenImageIO::v3_1_0::SgiInput", ptr %4, i32 0, i32 2
  %74 = getelementptr inbounds nuw %"struct.OpenImageIO::v3_1_0::sgi_pvt::SgiHeader", ptr %73, i32 0, i32 11
  call void @_ZN11OpenImageIO6v3_1_011swap_endianIiEEvPT_i(ptr noundef %74, i32 noundef 1)
  store i1 true, ptr %2, align 1
  br label %75

75:                                               ; preds = %57, %56, %48
  %76 = load i1, ptr %2, align 1
  ret i1 %76
}