; Function Attrs: mustprogress uwtable
define hidden noundef zeroext i1 @_ZN11OpenImageIO6v3_1_08SgiInput11read_headerEv(ptr noundef nonnull align 8 dereferenceable(376) %0) local_unnamed_addr #6 align 2 {
  %2 = getelementptr inbounds nuw i8, ptr %0, i64 216
  %3 = tail call noundef zeroext i1 @_ZN11OpenImageIO6v3_1_010ImageInput6ioreadEPvmm(ptr noundef nonnull align 8 dereferenceable(184) %0, ptr noundef nonnull %2, i64 noundef 2, i64 noundef 1)
  br i1 %3, label %4, label %_ZN11OpenImageIO6v3_1_011swap_endianIiEEvPT_i.exit34

4:                                                ; preds = %1
  %5 = getelementptr inbounds nuw i8, ptr %0, i64 218
  %6 = tail call noundef zeroext i1 @_ZN11OpenImageIO6v3_1_010ImageInput6ioreadEPvmm(ptr noundef nonnull align 8 dereferenceable(184) %0, ptr noundef nonnull %5, i64 noundef 1, i64 noundef 1)
  br i1 %6, label %7, label %_ZN11OpenImageIO6v3_1_011swap_endianIiEEvPT_i.exit34

7:                                                ; preds = %4
  %8 = getelementptr inbounds nuw i8, ptr %0, i64 219
  %9 = tail call noundef zeroext i1 @_ZN11OpenImageIO6v3_1_010ImageInput6ioreadEPvmm(ptr noundef nonnull align 8 dereferenceable(184) %0, ptr noundef nonnull %8, i64 noundef 1, i64 noundef 1)
  br i1 %9, label %10, label %_ZN11OpenImageIO6v3_1_011swap_endianIiEEvPT_i.exit34

10:                                               ; preds = %7
  %11 = getelementptr inbounds nuw i8, ptr %0, i64 220
  %12 = tail call noundef zeroext i1 @_ZN11OpenImageIO6v3_1_010ImageInput6ioreadEPvmm(ptr noundef nonnull align 8 dereferenceable(184) %0, ptr noundef nonnull %11, i64 noundef 2, i64 noundef 1)
  br i1 %12, label %13, label %_ZN11OpenImageIO6v3_1_011swap_endianIiEEvPT_i.exit34

13:                                               ; preds = %10
  %14 = getelementptr inbounds nuw i8, ptr %0, i64 222
  %15 = tail call noundef zeroext i1 @_ZN11OpenImageIO6v3_1_010ImageInput6ioreadEPvmm(ptr noundef nonnull align 8 dereferenceable(184) %0, ptr noundef nonnull %14, i64 noundef 2, i64 noundef 1)
  br i1 %15, label %16, label %_ZN11OpenImageIO6v3_1_011swap_endianIiEEvPT_i.exit34

16:                                               ; preds = %13
  %17 = getelementptr inbounds nuw i8, ptr %0, i64 224
  %18 = tail call noundef zeroext i1 @_ZN11OpenImageIO6v3_1_010ImageInput6ioreadEPvmm(ptr noundef nonnull align 8 dereferenceable(184) %0, ptr noundef nonnull %17, i64 noundef 2, i64 noundef 1)
  br i1 %18, label %19, label %_ZN11OpenImageIO6v3_1_011swap_endianIiEEvPT_i.exit34

19:                                               ; preds = %16
  %20 = getelementptr inbounds nuw i8, ptr %0, i64 226
  %21 = tail call noundef zeroext i1 @_ZN11OpenImageIO6v3_1_010ImageInput6ioreadEPvmm(ptr noundef nonnull align 8 dereferenceable(184) %0, ptr noundef nonnull %20, i64 noundef 2, i64 noundef 1)
  br i1 %21, label %22, label %_ZN11OpenImageIO6v3_1_011swap_endianIiEEvPT_i.exit34

22:                                               ; preds = %19
  %23 = getelementptr inbounds nuw i8, ptr %0, i64 228
  %24 = tail call noundef zeroext i1 @_ZN11OpenImageIO6v3_1_010ImageInput6ioreadEPvmm(ptr noundef nonnull align 8 dereferenceable(184) %0, ptr noundef nonnull %23, i64 noundef 4, i64 noundef 1)
  br i1 %24, label %25, label %_ZN11OpenImageIO6v3_1_011swap_endianIiEEvPT_i.exit34

25:                                               ; preds = %22
  %26 = getelementptr inbounds nuw i8, ptr %0, i64 232
  %27 = tail call noundef zeroext i1 @_ZN11OpenImageIO6v3_1_010ImageInput6ioreadEPvmm(ptr noundef nonnull align 8 dereferenceable(184) %0, ptr noundef nonnull %26, i64 noundef 4, i64 noundef 1)
  br i1 %27, label %28, label %_ZN11OpenImageIO6v3_1_011swap_endianIiEEvPT_i.exit34

28:                                               ; preds = %25
  %29 = getelementptr inbounds nuw i8, ptr %0, i64 236
  %30 = tail call noundef zeroext i1 @_ZN11OpenImageIO6v3_1_010ImageInput6ioreadEPvmm(ptr noundef nonnull align 8 dereferenceable(184) %0, ptr noundef nonnull %29, i64 noundef 4, i64 noundef 1)
  br i1 %30, label %31, label %_ZN11OpenImageIO6v3_1_011swap_endianIiEEvPT_i.exit34

31:                                               ; preds = %28
  %32 = getelementptr inbounds nuw i8, ptr %0, i64 240
  %33 = tail call noundef zeroext i1 @_ZN11OpenImageIO6v3_1_010ImageInput6ioreadEPvmm(ptr noundef nonnull align 8 dereferenceable(184) %0, ptr noundef nonnull %32, i64 noundef 80, i64 noundef 1)
  br i1 %33, label %34, label %_ZN11OpenImageIO6v3_1_011swap_endianIiEEvPT_i.exit34

34:                                               ; preds = %31
  %35 = getelementptr inbounds nuw i8, ptr %0, i64 319
  store i8 0, ptr %35, align 1, !tbaa !14
  %36 = getelementptr inbounds nuw i8, ptr %0, i64 320
  %37 = tail call noundef zeroext i1 @_ZN11OpenImageIO6v3_1_010ImageInput6ioreadEPvmm(ptr noundef nonnull align 8 dereferenceable(184) %0, ptr noundef nonnull %36, i64 noundef 4, i64 noundef 1)
  br i1 %37, label %.lr.ph.i, label %_ZN11OpenImageIO6v3_1_011swap_endianIiEEvPT_i.exit34

.lr.ph.i:                                         ; preds = %34
  %38 = tail call noundef zeroext i1 @_ZN11OpenImageIO6v3_1_010ImageInput6ioseekEli(ptr noundef nonnull align 8 dereferenceable(184) %0, i64 noundef 404, i32 noundef 1)
  %39 = load i16, ptr %2, align 8, !tbaa !23
  %40 = tail call noundef i16 @llvm.bswap.i16(i16 %39)
  store i16 %40, ptr %2, align 8, !tbaa !23
  %41 = load i16, ptr %11, align 4, !tbaa !23
  %42 = tail call noundef i16 @llvm.bswap.i16(i16 %41)
  store i16 %42, ptr %11, align 4, !tbaa !23
  %43 = load i16, ptr %14, align 2, !tbaa !23
  %44 = tail call noundef i16 @llvm.bswap.i16(i16 %43)
  store i16 %44, ptr %14, align 2, !tbaa !23
  %45 = load i16, ptr %17, align 8, !tbaa !23
  %46 = tail call noundef i16 @llvm.bswap.i16(i16 %45)
  store i16 %46, ptr %17, align 8, !tbaa !23
  %47 = load i16, ptr %20, align 2, !tbaa !23
  %48 = tail call noundef i16 @llvm.bswap.i16(i16 %47)
  store i16 %48, ptr %20, align 2, !tbaa !23
  %49 = load i32, ptr %23, align 4, !tbaa !82
  %50 = tail call noundef i32 @llvm.bswap.i32(i32 %49)
  store i32 %50, ptr %23, align 4, !tbaa !82
  %51 = load i32, ptr %26, align 8, !tbaa !82
  %52 = tail call noundef i32 @llvm.bswap.i32(i32 %51)
  store i32 %52, ptr %26, align 8, !tbaa !82
  %53 = load i32, ptr %36, align 8, !tbaa !82
  %54 = tail call noundef i32 @llvm.bswap.i32(i32 %53)
  store i32 %54, ptr %36, align 8, !tbaa !82
  br label %_ZN11OpenImageIO6v3_1_011swap_endianIiEEvPT_i.exit34

_ZN11OpenImageIO6v3_1_011swap_endianIiEEvPT_i.exit34: ; preds = %.lr.ph.i, %34, %1, %4, %7, %10, %13, %16, %19, %22, %25, %28, %31
  %.0 = phi i1 [ false, %31 ], [ false, %28 ], [ false, %25 ], [ false, %22 ], [ false, %19 ], [ false, %16 ], [ false, %13 ], [ false, %10 ], [ false, %7 ], [ false, %4 ], [ false, %1 ], [ false, %34 ], [ true, %.lr.ph.i ]
  ret i1 %.0
}